; Function Attrs: mustprogress uwtable
define void @_ZN4LIEF2PE3TLSC2ERKNS0_7details8pe32_tlsE(ptr noundef nonnull align 8 dereferenceable(112) %0, ptr nocapture noundef nonnull readonly align 1 dereferenceable(24) %1) unnamed_addr #3 align 2 personality ptr @__gxx_personality_v0 {
  tail call void @_ZN4LIEF6ObjectC2Ev(ptr noundef nonnull align 8 dereferenceable(8) %0)
  store ptr getelementptr inbounds ({ [7 x ptr] }, ptr @_ZTVN4LIEF2PE3TLSE, i64 0, i32 0, i64 2), ptr %0, align 8
  %3 = getelementptr inbounds i8, ptr %0, i64 8
  tail call void @llvm.memset.p0.i64(ptr noundef nonnull align 8 dereferenceable(24) %3, i8 0, i64 24, i1 false)
  %4 = getelementptr inbounds i8, ptr %0, i64 32
  %5 = getelementptr inbounds i8, ptr %1, i64 4
  %6 = load i32, ptr %1, align 4
  %7 = zext i32 %6 to i64
  store i64 %7, ptr %4, align 8
  %8 = getelementptr inbounds i8, ptr %0, i64 40
  %9 = load i32, ptr %5, align 4
  %10 = zext i32 %9 to i64
  store i64 %10, ptr %8, align 8
  %11 = getelementptr inbounds i8, ptr %0, i64 48
  %12 = getelementptr inbounds i8, ptr %1, i64 8
  %13 = load i32, ptr %12, align 1
  %14 = zext i32 %13 to i64
  store i64 %14, ptr %11, align 8
  %15 = getelementptr inbounds i8, ptr %0, i64 56
  %16 = getelementptr inbounds i8, ptr %1, i64 12
  %17 = load i32, ptr %16, align 1
  %18 = zext i32 %17 to i64
  store i64 %18, ptr %15, align 8
  %19 = getelementptr inbounds i8, ptr %0, i64 64
  %20 = getelementptr inbounds i8, ptr %1, i64 16
  %21 = load i32, ptr %20, align 1
  store i32 %21, ptr %19, align 8
  %22 = getelementptr inbounds i8, ptr %0, i64 68
  %23 = getelementptr inbounds i8, ptr %1, i64 20
  %24 = load i32, ptr %23, align 1
  store i32 %24, ptr %22, align 4
  %25 = getelementptr inbounds i8, ptr %0, i64 72
  tail call void @llvm.memset.p0.i64(ptr noundef nonnull align 8 dereferenceable(40) %25, i8 0, i64 40, i1 false)
  ret void
}